target datalayout = "e-m:e-p270:32:32-p271:32:32-p272:64:64-i64:64-i128:128-f80:128-n8:16:32:64-S128"
target triple = "x86_64-unknown-linux-gnu"

@.str.13 = private unnamed_addr constant [27 x i8] c"setsockopt TCP_NODELAY: %s\00", align 1

; Function Attrs: nounwind uwtable
define internal i32 @anetSetTcpNoDelay(ptr noundef %err, i32 noundef %fd, i32 noundef %val) #0 {
entry:
  %retval = alloca i32, align 4
  %err.addr = alloca ptr, align 8
  %fd.addr = alloca i32, align 4
  %val.addr = alloca i32, align 4
  store ptr %err, ptr %err.addr, align 8
  store i32 %fd, ptr %fd.addr, align 4
  store i32 %val, ptr %val.addr, align 4
  %0 = load i32, ptr %fd.addr, align 4
  %call = call i32 @setsockopt(i32 noundef %0, i32 noundef 6, i32 noundef 1, ptr noundef %val.addr, i32 noundef 4) #7
  %cmp = icmp eq i32 %call, -1
  br i1 %cmp, label %if.then, label %if.end

if.then:                                          ; preds = %entry
  %1 = load ptr, ptr %err.addr, align 8
  %call1 = call ptr @__errno_location() #8
  %2 = load i32, ptr %call1, align 4
  %call2 = call ptr @strerror(i32 noundef %2) #7
  call void (ptr, ptr, ...) @anetSetError(ptr noundef %1, ptr noundef @.str.13, ptr noundef %call2)
  store i32 -1, ptr %retval, align 4
  br label %return

if.end:                                           ; preds = %entry
  store i32 0, ptr %retval, align 4
  br label %return

return:                                           ; preds = %if.end, %if.then
  %3 = load i32, ptr %retval, align 4
  ret i32 %3
}

; Function Attrs: nounwind uwtable
define dso_local i32 @anetDisableTcpNoDelay(ptr noundef %err, i32 noundef %fd) #0 {
entry:
  %err.addr = alloca ptr, align 8
  %fd.addr = alloca i32, align 4
  store ptr %err, ptr %err.addr, align 8
  store i32 %fd, ptr %fd.addr, align 4
  %0 = load ptr, ptr %err.addr, align 8
  %1 = load i32, ptr %fd.addr, align 4
  %call = call i32 @anetSetTcpNoDelay(ptr noundef %0, i32 noundef %1, i32 noundef 0)
  ret i32 %call
}